target datalayout = "e-m:e-p270:32:32-p271:32:32-p272:64:64-i64:64-i128:128-f80:128-n8:16:32:64-S128"
target triple = "x86_64-pc-linux-gnu"

%struct.SurfaceDataRasInfo = type { %struct.SurfaceDataBounds, ptr, i32, i32, i32, i32, ptr, ptr, ptr, ptr, ptr, ptr, i32, %union.anon.0 }
%struct.SurfaceDataBounds = type { i32, i32, i32, i32 }
%union.anon.0 = type { ptr, [56 x i8] }

; Function Attrs: nounwind uwtable
define hidden void @ThreeByteBgrToUshortIndexedScaleConvert(ptr noundef %0, ptr noundef %1, i32 noundef %2, i32 noundef %3, i32 noundef %4, i32 noundef %5, i32 noundef %6, i32 noundef %7, i32 noundef %8, ptr noundef %9, ptr noundef %10, ptr noundef %11, ptr noundef %12) #0 {
  %14 = alloca ptr, align 8
  %15 = alloca ptr, align 8
  %16 = alloca i32, align 4
  %17 = alloca i32, align 4
  %18 = alloca i32, align 4
  %19 = alloca i32, align 4
  %20 = alloca i32, align 4
  %21 = alloca i32, align 4
  %22 = alloca i32, align 4
  %23 = alloca ptr, align 8
  %24 = alloca ptr, align 8
  %25 = alloca ptr, align 8
  %26 = alloca ptr, align 8
  %27 = alloca i32, align 4
  %28 = alloca i32, align 4
  %29 = alloca ptr, align 8
  %30 = alloca ptr, align 8
  %31 = alloca ptr, align 8
  %32 = alloca ptr, align 8
  %33 = alloca ptr, align 8
  %34 = alloca ptr, align 8
  %35 = alloca i32, align 4
  %36 = alloca i32, align 4
  %37 = alloca i32, align 4
  %38 = alloca i32, align 4
  %39 = alloca i32, align 4
  %40 = alloca i32, align 4
  %41 = alloca i32, align 4
  %42 = alloca i32, align 4
  store ptr %0, ptr %14, align 8
  store ptr %1, ptr %15, align 8
  store i32 %2, ptr %16, align 4
  store i32 %3, ptr %17, align 4
  store i32 %4, ptr %18, align 4
  store i32 %5, ptr %19, align 4
  store i32 %6, ptr %20, align 4
  store i32 %7, ptr %21, align 4
  store i32 %8, ptr %22, align 4
  store ptr %9, ptr %23, align 8
  store ptr %10, ptr %24, align 8
  store ptr %11, ptr %25, align 8
  store ptr %12, ptr %26, align 8
  br label %43

43:                                               ; preds = %13
  %44 = load ptr, ptr %15, align 8
  store ptr %44, ptr %34, align 8
  %45 = load ptr, ptr %23, align 8
  %46 = getelementptr inbounds %struct.SurfaceDataRasInfo, ptr %45, i32 0, i32 4
  %47 = load i32, ptr %46, align 8
  store i32 %47, ptr %35, align 4
  %48 = load ptr, ptr %24, align 8
  %49 = getelementptr inbounds %struct.SurfaceDataRasInfo, ptr %48, i32 0, i32 4
  %50 = load i32, ptr %49, align 8
  store i32 %50, ptr %36, align 4
  br label %51

51:                                               ; preds = %43
  br label %52

52:                                               ; preds = %51
  %53 = load ptr, ptr %24, align 8
  %54 = getelementptr inbounds %struct.SurfaceDataRasInfo, ptr %53, i32 0, i32 0
  %55 = getelementptr inbounds %struct.SurfaceDataBounds, ptr %54, i32 0, i32 1
  %56 = load i32, ptr %55, align 4
  %57 = and i32 %56, 7
  %58 = shl i32 %57, 3
  store i32 %58, ptr %28, align 4
  br label %59

59:                                               ; preds = %52
  %60 = load ptr, ptr %24, align 8
  %61 = getelementptr inbounds %struct.SurfaceDataRasInfo, ptr %60, i32 0, i32 7
  %62 = load ptr, ptr %61, align 8
  store ptr %62, ptr %32, align 8
  br label %63

63:                                               ; preds = %59
  %64 = load i32, ptr %16, align 4
  %65 = mul i32 %64, 2
  %66 = load i32, ptr %36, align 4
  %67 = sub i32 %66, %65
  store i32 %67, ptr %36, align 4
  br label %68

68:                                               ; preds = %259, %63
  %69 = load i32, ptr %16, align 4
  store i32 %69, ptr %37, align 4
  %70 = load i32, ptr %18, align 4
  store i32 %70, ptr %38, align 4
  %71 = load ptr, ptr %14, align 8
  %72 = ptrtoint ptr %71 to i64
  %73 = load i32, ptr %19, align 4
  %74 = load i32, ptr %22, align 4
  %75 = ashr i32 %73, %74
  %76 = sext i32 %75 to i64
  %77 = load i32, ptr %35, align 4
  %78 = sext i32 %77 to i64
  %79 = mul nsw i64 %76, %78
  %80 = add nsw i64 %72, %79
  %81 = inttoptr i64 %80 to ptr
  store ptr %81, ptr %33, align 8
  br label %82

82:                                               ; preds = %68
  %83 = load ptr, ptr %24, align 8
  %84 = getelementptr inbounds %struct.SurfaceDataRasInfo, ptr %83, i32 0, i32 8
  %85 = load ptr, ptr %84, align 8
  %86 = load i32, ptr %28, align 4
  %87 = sext i32 %86 to i64
  %88 = getelementptr inbounds i8, ptr %85, i64 %87
  store ptr %88, ptr %29, align 8
  %89 = load ptr, ptr %24, align 8
  %90 = getelementptr inbounds %struct.SurfaceDataRasInfo, ptr %89, i32 0, i32 9
  %91 = load ptr, ptr %90, align 8
  %92 = load i32, ptr %28, align 4
  %93 = sext i32 %92 to i64
  %94 = getelementptr inbounds i8, ptr %91, i64 %93
  store ptr %94, ptr %30, align 8
  %95 = load ptr, ptr %24, align 8
  %96 = getelementptr inbounds %struct.SurfaceDataRasInfo, ptr %95, i32 0, i32 10
  %97 = load ptr, ptr %96, align 8
  %98 = load i32, ptr %28, align 4
  %99 = sext i32 %98 to i64
  %100 = getelementptr inbounds i8, ptr %97, i64 %99
  store ptr %100, ptr %31, align 8
  %101 = load ptr, ptr %24, align 8
  %102 = getelementptr inbounds %struct.SurfaceDataRasInfo, ptr %101, i32 0, i32 0
  %103 = getelementptr inbounds %struct.SurfaceDataBounds, ptr %102, i32 0, i32 0
  %104 = load i32, ptr %103, align 8
  %105 = and i32 %104, 7
  store i32 %105, ptr %27, align 4
  br label %106

106:                                              ; preds = %82
  br label %107

107:                                              ; preds = %242, %106
  %108 = load i32, ptr %38, align 4
  %109 = load i32, ptr %22, align 4
  %110 = ashr i32 %108, %109
  store i32 %110, ptr %39, align 4
  br label %111

111:                                              ; preds = %107
  br label %112

112:                                              ; preds = %111
  %113 = load ptr, ptr %33, align 8
  %114 = load i32, ptr %39, align 4
  %115 = mul nsw i32 3, %114
  %116 = add nsw i32 %115, 0
  %117 = sext i32 %116 to i64
  %118 = getelementptr inbounds i8, ptr %113, i64 %117
  %119 = load i8, ptr %118, align 1
  %120 = zext i8 %119 to i32
  store i32 %120, ptr %42, align 4
  %121 = load ptr, ptr %33, align 8
  %122 = load i32, ptr %39, align 4
  %123 = mul nsw i32 3, %122
  %124 = add nsw i32 %123, 1
  %125 = sext i32 %124 to i64
  %126 = getelementptr inbounds i8, ptr %121, i64 %125
  %127 = load i8, ptr %126, align 1
  %128 = zext i8 %127 to i32
  store i32 %128, ptr %41, align 4
  %129 = load ptr, ptr %33, align 8
  %130 = load i32, ptr %39, align 4
  %131 = mul nsw i32 3, %130
  %132 = add nsw i32 %131, 2
  %133 = sext i32 %132 to i64
  %134 = getelementptr inbounds i8, ptr %129, i64 %133
  %135 = load i8, ptr %134, align 1
  %136 = zext i8 %135 to i32
  store i32 %136, ptr %40, align 4
  br label %137

137:                                              ; preds = %112
  br label %138

138:                                              ; preds = %137
  %139 = load ptr, ptr %29, align 8
  %140 = load i32, ptr %27, align 4
  %141 = sext i32 %140 to i64
  %142 = getelementptr inbounds i8, ptr %139, i64 %141
  %143 = load i8, ptr %142, align 1
  %144 = sext i8 %143 to i32
  %145 = load i32, ptr %40, align 4
  %146 = add nsw i32 %145, %144
  store i32 %146, ptr %40, align 4
  %147 = load ptr, ptr %30, align 8
  %148 = load i32, ptr %27, align 4
  %149 = sext i32 %148 to i64
  %150 = getelementptr inbounds i8, ptr %147, i64 %149
  %151 = load i8, ptr %150, align 1
  %152 = sext i8 %151 to i32
  %153 = load i32, ptr %41, align 4
  %154 = add nsw i32 %153, %152
  store i32 %154, ptr %41, align 4
  %155 = load ptr, ptr %31, align 8
  %156 = load i32, ptr %27, align 4
  %157 = sext i32 %156 to i64
  %158 = getelementptr inbounds i8, ptr %155, i64 %157
  %159 = load i8, ptr %158, align 1
  %160 = sext i8 %159 to i32
  %161 = load i32, ptr %42, align 4
  %162 = add nsw i32 %161, %160
  store i32 %162, ptr %42, align 4
  br label %163

163:                                              ; preds = %138
  %164 = load i32, ptr %40, align 4
  %165 = load i32, ptr %41, align 4
  %166 = or i32 %164, %165
  %167 = load i32, ptr %42, align 4
  %168 = or i32 %166, %167
  %169 = ashr i32 %168, 8
  %170 = icmp ne i32 %169, 0
  br i1 %170, label %171, label %205

171:                                              ; preds = %163
  br label %172

172:                                              ; preds = %171
  %173 = load i32, ptr %40, align 4
  %174 = ashr i32 %173, 8
  %175 = icmp ne i32 %174, 0
  br i1 %175, label %176, label %181

176:                                              ; preds = %172
  %177 = load i32, ptr %40, align 4
  %178 = ashr i32 %177, 31
  %179 = xor i32 %178, -1
  %180 = and i32 %179, 255
  store i32 %180, ptr %40, align 4
  br label %181

181:                                              ; preds = %176, %172
  br label %182

182:                                              ; preds = %181
  br label %183

183:                                              ; preds = %182
  %184 = load i32, ptr %41, align 4
  %185 = ashr i32 %184, 8
  %186 = icmp ne i32 %185, 0
  br i1 %186, label %187, label %192

187:                                              ; preds = %183
  %188 = load i32, ptr %41, align 4
  %189 = ashr i32 %188, 31
  %190 = xor i32 %189, -1
  %191 = and i32 %190, 255
  store i32 %191, ptr %41, align 4
  br label %192

192:                                              ; preds = %187, %183
  br label %193

193:                                              ; preds = %192
  br label %194

194:                                              ; preds = %193
  %195 = load i32, ptr %42, align 4
  %196 = ashr i32 %195, 8
  %197 = icmp ne i32 %196, 0
  br i1 %197, label %198, label %203

198:                                              ; preds = %194
  %199 = load i32, ptr %42, align 4
  %200 = ashr i32 %199, 31
  %201 = xor i32 %200, -1
  %202 = and i32 %201, 255
  store i32 %202, ptr %42, align 4
  br label %203

203:                                              ; preds = %198, %194
  br label %204

204:                                              ; preds = %203
  br label %205

205:                                              ; preds = %204, %163
  br label %206

206:                                              ; preds = %205
  %207 = load ptr, ptr %32, align 8
  %208 = load i32, ptr %40, align 4
  %209 = trunc i32 %208 to i8
  %210 = zext i8 %209 to i32
  %211 = ashr i32 %210, 3
  %212 = shl i32 %211, 10
  %213 = load i32, ptr %41, align 4
  %214 = trunc i32 %213 to i8
  %215 = zext i8 %214 to i32
  %216 = ashr i32 %215, 3
  %217 = shl i32 %216, 5
  %218 = add nsw i32 %212, %217
  %219 = load i32, ptr %42, align 4
  %220 = trunc i32 %219 to i8
  %221 = zext i8 %220 to i32
  %222 = ashr i32 %221, 3
  %223 = add nsw i32 %218, %222
  %224 = sext i32 %223 to i64
  %225 = getelementptr inbounds i8, ptr %207, i64 %224
  %226 = load i8, ptr %225, align 1
  %227 = zext i8 %226 to i16
  %228 = load ptr, ptr %34, align 8
  %229 = getelementptr inbounds i16, ptr %228, i64 0
  store i16 %227, ptr %229, align 2
  br label %230

230:                                              ; preds = %206
  br label %231

231:                                              ; preds = %230
  %232 = load ptr, ptr %34, align 8
  %233 = ptrtoint ptr %232 to i64
  %234 = add nsw i64 %233, 2
  %235 = inttoptr i64 %234 to ptr
  store ptr %235, ptr %34, align 8
  %236 = load i32, ptr %27, align 4
  %237 = add nsw i32 %236, 1
  %238 = and i32 %237, 7
  store i32 %238, ptr %27, align 4
  %239 = load i32, ptr %20, align 4
  %240 = load i32, ptr %38, align 4
  %241 = add nsw i32 %240, %239
  store i32 %241, ptr %38, align 4
  br label %242

242:                                              ; preds = %231
  %243 = load i32, ptr %37, align 4
  %244 = add i32 %243, -1
  store i32 %244, ptr %37, align 4
  %245 = icmp ugt i32 %244, 0
  br i1 %245, label %107, label %246, !llvm.loop !22

246:                                              ; preds = %242
  %247 = load ptr, ptr %34, align 8
  %248 = ptrtoint ptr %247 to i64
  %249 = load i32, ptr %36, align 4
  %250 = sext i32 %249 to i64
  %251 = add nsw i64 %248, %250
  %252 = inttoptr i64 %251 to ptr
  store ptr %252, ptr %34, align 8
  %253 = load i32, ptr %28, align 4
  %254 = add nsw i32 %253, 8
  %255 = and i32 %254, 56
  store i32 %255, ptr %28, align 4
  %256 = load i32, ptr %21, align 4
  %257 = load i32, ptr %19, align 4
  %258 = add nsw i32 %257, %256
  store i32 %258, ptr %19, align 4
  br label %259

259:                                              ; preds = %246
  %260 = load i32, ptr %17, align 4
  %261 = add i32 %260, -1
  store i32 %261, ptr %17, align 4
  %262 = icmp ugt i32 %261, 0
  br i1 %262, label %68, label %263, !llvm.loop !23

263:                                              ; preds = %259
  br label %264

264:                                              ; preds = %263
  ret void
}