; Function Attrs: nofree norecurse nosync nounwind memory(readwrite, inaccessiblemem: none) uwtable
define hidden void @ThreeByteBgrToUshortIndexedScaleConvert(ptr noundef %0, ptr noundef %1, i32 noundef %2, i32 noundef %3, i32 noundef %4, i32 noundef %5, i32 noundef %6, i32 noundef %7, i32 noundef %8, ptr nocapture noundef readonly %9, ptr nocapture noundef readonly %10, ptr nocapture readnone %11, ptr nocapture readnone %12) #0 {
  %14 = getelementptr inbounds i8, ptr %9, i64 32
  %15 = load i32, ptr %14, align 8
  %16 = getelementptr inbounds i8, ptr %10, i64 32
  %17 = load i32, ptr %16, align 8
  %18 = getelementptr inbounds i8, ptr %10, i64 4
  %19 = load i32, ptr %18, align 4
  %20 = shl i32 %19, 3
  %21 = getelementptr inbounds i8, ptr %10, i64 48
  %22 = load ptr, ptr %21, align 8
  %23 = shl i32 %2, 1
  %24 = sub i32 %17, %23
  %25 = sext i32 %24 to i64
  %26 = ptrtoint ptr %0 to i64
  %27 = sext i32 %15 to i64
  %28 = getelementptr inbounds i8, ptr %10, i64 56
  %29 = getelementptr inbounds i8, ptr %10, i64 64
  %30 = getelementptr inbounds i8, ptr %10, i64 72
  br label %31

31:                                               ; preds = %98, %13
  %.071.in = phi i32 [ %20, %13 ], [ %101, %98 ]
  %.068 = phi ptr [ %1, %13 ], [ %100, %98 ]
  %.067 = phi i32 [ %5, %13 ], [ %102, %98 ]
  %.064 = phi i32 [ %3, %13 ], [ %103, %98 ]
  %.071 = and i32 %.071.in, 56
  %32 = ashr i32 %.067, %8
  %33 = sext i32 %32 to i64
  %34 = mul nsw i64 %33, %27
  %35 = add nsw i64 %34, %26
  %36 = inttoptr i64 %35 to ptr
  %37 = load ptr, ptr %28, align 8
  %38 = zext nneg i32 %.071 to i64
  %39 = getelementptr inbounds i8, ptr %37, i64 %38
  %40 = load ptr, ptr %29, align 8
  %41 = getelementptr inbounds i8, ptr %40, i64 %38
  %42 = load ptr, ptr %30, align 8
  %43 = getelementptr inbounds i8, ptr %42, i64 %38
  %44 = load i32, ptr %10, align 8
  br label %45

45:                                               ; preds = %80, %31
  %.070.in = phi i32 [ %44, %31 ], [ %95, %80 ]
  %.169 = phi ptr [ %.068, %31 ], [ %94, %80 ]
  %.066 = phi i32 [ %2, %31 ], [ %97, %80 ]
  %.065 = phi i32 [ %4, %31 ], [ %96, %80 ]
  %.070 = and i32 %.070.in, 7
  %46 = ashr i32 %.065, %8
  %47 = mul nsw i32 %46, 3
  %48 = sext i32 %47 to i64
  %49 = getelementptr inbounds i8, ptr %36, i64 %48
  %50 = load i8, ptr %49, align 1
  %51 = zext i8 %50 to i32
  %52 = getelementptr i8, ptr %49, i64 1
  %53 = load i8, ptr %52, align 1
  %54 = zext i8 %53 to i32
  %55 = getelementptr i8, ptr %49, i64 2
  %56 = load i8, ptr %55, align 1
  %57 = zext i8 %56 to i32
  %58 = zext nneg i32 %.070 to i64
  %59 = getelementptr inbounds i8, ptr %39, i64 %58
  %60 = load i8, ptr %59, align 1
  %61 = sext i8 %60 to i32
  %62 = add nsw i32 %61, %57
  %63 = getelementptr inbounds i8, ptr %41, i64 %58
  %64 = load i8, ptr %63, align 1
  %65 = sext i8 %64 to i32
  %66 = add nsw i32 %65, %54
  %67 = getelementptr inbounds i8, ptr %43, i64 %58
  %68 = load i8, ptr %67, align 1
  %69 = sext i8 %68 to i32
  %70 = add nsw i32 %69, %51
  %71 = or i32 %66, %62
  %72 = or i32 %71, %70
  %.not = icmp ult i32 %72, 256
  br i1 %.not, label %80, label %73

73:                                               ; preds = %45
  %74 = tail call i32 @llvm.smax.i32(i32 %62, i32 0)
  %75 = tail call i32 @llvm.umin.i32(i32 %74, i32 255)
  %76 = tail call i32 @llvm.smax.i32(i32 %66, i32 0)
  %77 = tail call i32 @llvm.umin.i32(i32 %76, i32 255)
  %.not77 = icmp ult i32 %70, 256
  br i1 %.not77, label %80, label %78

78:                                               ; preds = %73
  %isnotneg.inv78 = icmp slt i32 %70, 0
  %79 = select i1 %isnotneg.inv78, i32 0, i32 255
  br label %80

80:                                               ; preds = %45, %73, %78
  %.163 = phi i32 [ %75, %78 ], [ %75, %73 ], [ %62, %45 ]
  %.1 = phi i32 [ %77, %78 ], [ %77, %73 ], [ %66, %45 ]
  %.0 = phi i32 [ %79, %78 ], [ %70, %73 ], [ %70, %45 ]
  %81 = shl nsw i32 %.163, 7
  %82 = and i32 %81, 31744
  %83 = shl nsw i32 %.1, 2
  %84 = and i32 %83, 992
  %85 = or disjoint i32 %84, %82
  %86 = lshr i32 %.0, 3
  %87 = or disjoint i32 %85, %86
  %88 = zext nneg i32 %87 to i64
  %89 = getelementptr inbounds i8, ptr %22, i64 %88
  %90 = load i8, ptr %89, align 1
  %91 = zext i8 %90 to i16
  store i16 %91, ptr %.169, align 2
  %92 = ptrtoint ptr %.169 to i64
  %93 = add nsw i64 %92, 2
  %94 = inttoptr i64 %93 to ptr
  %95 = add nuw nsw i32 %.070, 1
  %96 = add nsw i32 %.065, %6
  %97 = add i32 %.066, -1
  %.not79 = icmp eq i32 %97, 0
  br i1 %.not79, label %98, label %45, !llvm.loop !22

98:                                               ; preds = %80
  %99 = add nsw i64 %93, %25
  %100 = inttoptr i64 %99 to ptr
  %101 = add nuw nsw i32 %.071, 8
  %102 = add nsw i32 %.067, %7
  %103 = add i32 %.064, -1
  %.not80 = icmp eq i32 %103, 0
  br i1 %.not80, label %104, label %31, !llvm.loop !23

104:                                              ; preds = %98
  ret void
}